
functionfoo.so:     file format elf32-i386


Disassembly of section .init:

00000388 <_init>:
 388:	53                   	push   %ebx
 389:	83 ec 08             	sub    $0x8,%esp
 38c:	e8 5f 00 00 00       	call   3f0 <__x86.get_pc_thunk.bx>
 391:	81 c3 6f 1c 00 00    	add    $0x1c6f,%ebx
 397:	8b 83 f4 ff ff ff    	mov    -0xc(%ebx),%eax
 39d:	85 c0                	test   %eax,%eax
 39f:	74 05                	je     3a6 <_init+0x1e>
 3a1:	e8 2a 00 00 00       	call   3d0 <__gmon_start__@plt>
 3a6:	83 c4 08             	add    $0x8,%esp
 3a9:	5b                   	pop    %ebx
 3aa:	c3                   	ret    

Disassembly of section .plt:

000003b0 <__cxa_finalize@plt-0x10>:
 3b0:	ff b3 04 00 00 00    	pushl  0x4(%ebx)
 3b6:	ff a3 08 00 00 00    	jmp    *0x8(%ebx)
 3bc:	00 00                	add    %al,(%eax)
	...

000003c0 <__cxa_finalize@plt>:
 3c0:	ff a3 0c 00 00 00    	jmp    *0xc(%ebx)
 3c6:	68 00 00 00 00       	push   $0x0
 3cb:	e9 e0 ff ff ff       	jmp    3b0 <_init+0x28>

000003d0 <__gmon_start__@plt>:
 3d0:	ff a3 10 00 00 00    	jmp    *0x10(%ebx)
 3d6:	68 08 00 00 00       	push   $0x8
 3db:	e9 d0 ff ff ff       	jmp    3b0 <_init+0x28>

000003e0 <foo@plt>:
 3e0:	ff a3 14 00 00 00    	jmp    *0x14(%ebx)
 3e6:	68 10 00 00 00       	push   $0x10
 3eb:	e9 c0 ff ff ff       	jmp    3b0 <_init+0x28>

Disassembly of section .text:

000003f0 <__x86.get_pc_thunk.bx>:
 3f0:	8b 1c 24             	mov    (%esp),%ebx
 3f3:	c3                   	ret    
 3f4:	66 90                	xchg   %ax,%ax
 3f6:	66 90                	xchg   %ax,%ax
 3f8:	66 90                	xchg   %ax,%ax
 3fa:	66 90                	xchg   %ax,%ax
 3fc:	66 90                	xchg   %ax,%ax
 3fe:	66 90                	xchg   %ax,%ax

00000400 <deregister_tm_clones>:
 400:	55                   	push   %ebp
 401:	89 e5                	mov    %esp,%ebp
 403:	53                   	push   %ebx
 404:	e8 e7 ff ff ff       	call   3f0 <__x86.get_pc_thunk.bx>
 409:	81 c3 f7 1b 00 00    	add    $0x1bf7,%ebx
 40f:	8d 83 1b 00 00 00    	lea    0x1b(%ebx),%eax
 415:	8d 93 18 00 00 00    	lea    0x18(%ebx),%edx
 41b:	29 d0                	sub    %edx,%eax
 41d:	8d 64 24 ec          	lea    -0x14(%esp),%esp
 421:	83 f8 06             	cmp    $0x6,%eax
 424:	77 07                	ja     42d <deregister_tm_clones+0x2d>
 426:	8d 64 24 14          	lea    0x14(%esp),%esp
 42a:	5b                   	pop    %ebx
 42b:	5d                   	pop    %ebp
 42c:	c3                   	ret    
 42d:	8b 83 ec ff ff ff    	mov    -0x14(%ebx),%eax
 433:	85 c0                	test   %eax,%eax
 435:	74 ef                	je     426 <deregister_tm_clones+0x26>
 437:	89 14 24             	mov    %edx,(%esp)
 43a:	ff d0                	call   *%eax
 43c:	eb e8                	jmp    426 <deregister_tm_clones+0x26>
 43e:	66 90                	xchg   %ax,%ax

00000440 <register_tm_clones>:
 440:	55                   	push   %ebp
 441:	89 e5                	mov    %esp,%ebp
 443:	53                   	push   %ebx
 444:	e8 a7 ff ff ff       	call   3f0 <__x86.get_pc_thunk.bx>
 449:	81 c3 b7 1b 00 00    	add    $0x1bb7,%ebx
 44f:	8d 83 18 00 00 00    	lea    0x18(%ebx),%eax
 455:	8d 93 18 00 00 00    	lea    0x18(%ebx),%edx
 45b:	29 d0                	sub    %edx,%eax
 45d:	8d 64 24 ec          	lea    -0x14(%esp),%esp
 461:	c1 f8 02             	sar    $0x2,%eax
 464:	89 c1                	mov    %eax,%ecx
 466:	c1 e9 1f             	shr    $0x1f,%ecx
 469:	01 c8                	add    %ecx,%eax
 46b:	d1 f8                	sar    %eax
 46d:	75 07                	jne    476 <register_tm_clones+0x36>
 46f:	8d 64 24 14          	lea    0x14(%esp),%esp
 473:	5b                   	pop    %ebx
 474:	5d                   	pop    %ebp
 475:	c3                   	ret    
 476:	8b 8b fc ff ff ff    	mov    -0x4(%ebx),%ecx
 47c:	85 c9                	test   %ecx,%ecx
 47e:	74 ef                	je     46f <register_tm_clones+0x2f>
 480:	89 44 24 04          	mov    %eax,0x4(%esp)
 484:	89 14 24             	mov    %edx,(%esp)
 487:	ff d1                	call   *%ecx
 489:	eb e4                	jmp    46f <register_tm_clones+0x2f>
 48b:	90                   	nop
 48c:	8d 74 26 00          	lea    0x0(%esi,%eiz,1),%esi

00000490 <__do_global_dtors_aux>:
 490:	55                   	push   %ebp
 491:	89 e5                	mov    %esp,%ebp
 493:	53                   	push   %ebx
 494:	e8 57 ff ff ff       	call   3f0 <__x86.get_pc_thunk.bx>
 499:	81 c3 67 1b 00 00    	add    $0x1b67,%ebx
 49f:	8d 64 24 ec          	lea    -0x14(%esp),%esp
 4a3:	80 bb 18 00 00 00 00 	cmpb   $0x0,0x18(%ebx)
 4aa:	75 24                	jne    4d0 <__do_global_dtors_aux+0x40>
 4ac:	8b 83 f0 ff ff ff    	mov    -0x10(%ebx),%eax
 4b2:	85 c0                	test   %eax,%eax
 4b4:	74 0e                	je     4c4 <__do_global_dtors_aux+0x34>
 4b6:	8d 83 08 ff ff ff    	lea    -0xf8(%ebx),%eax
 4bc:	89 04 24             	mov    %eax,(%esp)
 4bf:	e8 fc fe ff ff       	call   3c0 <__cxa_finalize@plt>
 4c4:	e8 37 ff ff ff       	call   400 <deregister_tm_clones>
 4c9:	c6 83 18 00 00 00 01 	movb   $0x1,0x18(%ebx)
 4d0:	8d 64 24 14          	lea    0x14(%esp),%esp
 4d4:	5b                   	pop    %ebx
 4d5:	5d                   	pop    %ebp
 4d6:	c3                   	ret    
 4d7:	89 f6                	mov    %esi,%esi
 4d9:	8d bc 27 00 00 00 00 	lea    0x0(%edi,%eiz,1),%edi

000004e0 <frame_dummy>:
 4e0:	55                   	push   %ebp
 4e1:	89 e5                	mov    %esp,%ebp
 4e3:	53                   	push   %ebx
 4e4:	e8 07 ff ff ff       	call   3f0 <__x86.get_pc_thunk.bx>
 4e9:	81 c3 17 1b 00 00    	add    $0x1b17,%ebx
 4ef:	8d 64 24 ec          	lea    -0x14(%esp),%esp
 4f3:	8b 93 04 ff ff ff    	mov    -0xfc(%ebx),%edx
 4f9:	85 d2                	test   %edx,%edx
 4fb:	74 15                	je     512 <frame_dummy+0x32>
 4fd:	8b 83 f8 ff ff ff    	mov    -0x8(%ebx),%eax
 503:	85 c0                	test   %eax,%eax
 505:	74 0b                	je     512 <frame_dummy+0x32>
 507:	8d 93 04 ff ff ff    	lea    -0xfc(%ebx),%edx
 50d:	89 14 24             	mov    %edx,(%esp)
 510:	ff d0                	call   *%eax
 512:	8d 64 24 14          	lea    0x14(%esp),%esp
 516:	5b                   	pop    %ebx
 517:	5d                   	pop    %ebp
 518:	e9 23 ff ff ff       	jmp    440 <register_tm_clones>
 51d:	66 90                	xchg   %ax,%ax
 51f:	90                   	nop

00000520 <function>:
 520:	55                   	push   %ebp
 521:	89 e5                	mov    %esp,%ebp
 523:	53                   	push   %ebx
 524:	83 ec 04             	sub    $0x4,%esp
 527:	e8 c4 fe ff ff       	call   3f0 <__x86.get_pc_thunk.bx>
 52c:	81 c3 d4 1a 00 00    	add    $0x1ad4,%ebx
 532:	e8 a9 fe ff ff       	call   3e0 <foo@plt>
 537:	83 c4 04             	add    $0x4,%esp
 53a:	5b                   	pop    %ebx
 53b:	5d                   	pop    %ebp
 53c:	c3                   	ret    
 53d:	66 90                	xchg   %ax,%ax
 53f:	90                   	nop

Disassembly of section .fini:

00000540 <_fini>:
 540:	53                   	push   %ebx
 541:	83 ec 08             	sub    $0x8,%esp
 544:	e8 a7 fe ff ff       	call   3f0 <__x86.get_pc_thunk.bx>
 549:	81 c3 b7 1a 00 00    	add    $0x1ab7,%ebx
 54f:	83 c4 08             	add    $0x8,%esp
 552:	5b                   	pop    %ebx
 553:	c3                   	ret    
