	.file	"macro_offset.c"
	.text
.Ltext0:
	.globl	e
	.data
	.align 2
	.type	e, @object
	.size	e, 2
e:
	.value	1
	.text
	.globl	_Z3addii
	.type	_Z3addii, @function
_Z3addii:
.LFB0:
	.file 1 "macro_offset.c"
	.loc 1 15 0
	.cfi_startproc
	pushl	%ebp
	.cfi_def_cfa_offset 8
	.cfi_offset 5, -8
	movl	%esp, %ebp
	.cfi_def_cfa_register 5
.LBB2:
	.loc 1 17 0
	movl	_ZZ3addiiE1c, %eax
	addl	$1, %eax
	movl	%eax, _ZZ3addiiE1c
	.loc 1 19 0
	movl	_ZZ3addiiE1d, %eax
	addl	$1, %eax
	movl	%eax, _ZZ3addiiE1d
	.loc 1 20 0
	movl	12(%ebp), %eax
	movl	8(%ebp), %edx
	addl	%edx, %eax
.LBE2:
	.loc 1 21 0
	popl	%ebp
	.cfi_restore 5
	.cfi_def_cfa 4, 4
	ret
	.cfi_endproc
.LFE0:
	.size	_Z3addii, .-_Z3addii
	.section	.rodata
.LC0:
	.string	"add=%d\n"
	.text
	.globl	main
	.type	main, @function
main:
.LFB1:
	.loc 1 23 0
	.cfi_startproc
	pushl	%ebp
	.cfi_def_cfa_offset 8
	.cfi_offset 5, -8
	movl	%esp, %ebp
	.cfi_def_cfa_register 5
	andl	$-16, %esp
	subl	$32, %esp
.LBB3:
	.loc 1 24 0
	movl	$0, 28(%esp)
	.loc 1 25 0
	movl	$12, (%esp)
	call	_Znaj
	movl	%eax, 24(%esp)
	.loc 1 26 0
	movl	24(%esp), %eax
	movl	$3, (%eax)
	.loc 1 27 0
	movl	$0, 28(%esp)
	jmp	.L4
.L5:
	.loc 1 28 0 discriminator 2
	movl	28(%esp), %eax
	movl	%eax, 4(%esp)
	movl	$0, (%esp)
	call	_Z3addii
	movl	%eax, 4(%esp)
	movl	$.LC0, (%esp)
	call	printf
	.loc 1 27 0 discriminator 2
	addl	$1, 28(%esp)
.L4:
	.loc 1 27 0 is_stmt 0 discriminator 1
	cmpl	$2, 28(%esp)
	setle	%al
	testb	%al, %al
	jne	.L5
	.loc 1 29 0 is_stmt 1
	movl	$0, %eax
.LBE3:
	.loc 1 30 0
	leave
	.cfi_restore 5
	.cfi_def_cfa 4, 4
	ret
	.cfi_endproc
.LFE1:
	.size	main, .-main
	.data
	.align 4
	.type	_ZZ3addiiE1c, @object
	.size	_ZZ3addiiE1c, 4
_ZZ3addiiE1c:
	.long	1
	.local	_ZZ3addiiE1d
	.comm	_ZZ3addiiE1d,4,4
	.text
.Letext0:
	.section	.note.GNU-stack,"",@progbits
