	.file	"virtual.c"
	.text
.Ltext0:
	.section	.rodata
.LC0:
	.string	"fun"
	.section	.text._ZN1A3funEv,"axG",@progbits,_ZN1A3funEv,comdat
	.align 2
	.weak	_ZN1A3funEv
	.type	_ZN1A3funEv, @function
_ZN1A3funEv:
.LFB0:
	.file 1 "virtual.c"
	.loc 1 6 0
	.cfi_startproc
	pushl	%ebp
	.cfi_def_cfa_offset 8
	.cfi_offset 5, -8
	movl	%esp, %ebp
	.cfi_def_cfa_register 5
	subl	$24, %esp
	.loc 1 6 0
	movl	$.LC0, (%esp)
	call	puts
	leave
	.cfi_restore 5
	.cfi_def_cfa 4, 4
	ret
	.cfi_endproc
.LFE0:
	.size	_ZN1A3funEv, .-_ZN1A3funEv
	.section	.rodata
.LC1:
	.string	"fun1"
	.section	.text._ZN1A4fun1Ev,"axG",@progbits,_ZN1A4fun1Ev,comdat
	.align 2
	.weak	_ZN1A4fun1Ev
	.type	_ZN1A4fun1Ev, @function
_ZN1A4fun1Ev:
.LFB1:
	.loc 1 7 0
	.cfi_startproc
	pushl	%ebp
	.cfi_def_cfa_offset 8
	.cfi_offset 5, -8
	movl	%esp, %ebp
	.cfi_def_cfa_register 5
	subl	$24, %esp
	.loc 1 7 0
	movl	$.LC1, (%esp)
	call	puts
	leave
	.cfi_restore 5
	.cfi_def_cfa 4, 4
	ret
	.cfi_endproc
.LFE1:
	.size	_ZN1A4fun1Ev, .-_ZN1A4fun1Ev
	.section	.rodata
.LC2:
	.string	"fun B"
	.section	.text._ZN1B3funEv,"axG",@progbits,_ZN1B3funEv,comdat
	.align 2
	.weak	_ZN1B3funEv
	.type	_ZN1B3funEv, @function
_ZN1B3funEv:
.LFB2:
	.loc 1 14 0
	.cfi_startproc
	pushl	%ebp
	.cfi_def_cfa_offset 8
	.cfi_offset 5, -8
	movl	%esp, %ebp
	.cfi_def_cfa_register 5
	subl	$24, %esp
	.loc 1 14 0
	movl	$.LC2, (%esp)
	call	puts
	leave
	.cfi_restore 5
	.cfi_def_cfa 4, 4
	ret
	.cfi_endproc
.LFE2:
	.size	_ZN1B3funEv, .-_ZN1B3funEv
	.section	.text._ZN1AC2Ev,"axG",@progbits,_ZN1AC5Ev,comdat
	.align 2
	.weak	_ZN1AC2Ev
	.type	_ZN1AC2Ev, @function
_ZN1AC2Ev:
.LFB5:
	.loc 1 3 0
	.cfi_startproc
	pushl	%ebp
	.cfi_def_cfa_offset 8
	.cfi_offset 5, -8
	movl	%esp, %ebp
	.cfi_def_cfa_register 5
.LBB2:
	.loc 1 3 0
	movl	8(%ebp), %eax
	movl	$_ZTV1A+8, (%eax)
.LBE2:
	popl	%ebp
	.cfi_restore 5
	.cfi_def_cfa 4, 4
	ret
	.cfi_endproc
.LFE5:
	.size	_ZN1AC2Ev, .-_ZN1AC2Ev
	.weak	_ZN1AC1Ev
	.set	_ZN1AC1Ev,_ZN1AC2Ev
	.section	.text._ZN1BC2Ev,"axG",@progbits,_ZN1BC5Ev,comdat
	.align 2
	.weak	_ZN1BC2Ev
	.type	_ZN1BC2Ev, @function
_ZN1BC2Ev:
.LFB9:
	.loc 1 11 0
	.cfi_startproc
	pushl	%ebp
	.cfi_def_cfa_offset 8
	.cfi_offset 5, -8
	movl	%esp, %ebp
	.cfi_def_cfa_register 5
	subl	$24, %esp
.LBB3:
	.loc 1 11 0
	movl	8(%ebp), %eax
	movl	%eax, (%esp)
	call	_ZN1AC2Ev
	movl	8(%ebp), %eax
	movl	$_ZTV1B+8, (%eax)
.LBE3:
	leave
	.cfi_restore 5
	.cfi_def_cfa 4, 4
	ret
	.cfi_endproc
.LFE9:
	.size	_ZN1BC2Ev, .-_ZN1BC2Ev
	.weak	_ZN1BC1Ev
	.set	_ZN1BC1Ev,_ZN1BC2Ev
	.section	.text._ZN1CC2Ev,"axG",@progbits,_ZN1CC5Ev,comdat
	.align 2
	.weak	_ZN1CC2Ev
	.type	_ZN1CC2Ev, @function
_ZN1CC2Ev:
.LFB11:
	.loc 1 16 0
	.cfi_startproc
	pushl	%ebp
	.cfi_def_cfa_offset 8
	.cfi_offset 5, -8
	movl	%esp, %ebp
	.cfi_def_cfa_register 5
	subl	$24, %esp
.LBB4:
	.loc 1 16 0
	movl	8(%ebp), %eax
	movl	%eax, (%esp)
	call	_ZN1BC2Ev
	movl	8(%ebp), %eax
	movl	$_ZTV1C+8, (%eax)
.LBE4:
	leave
	.cfi_restore 5
	.cfi_def_cfa 4, 4
	ret
	.cfi_endproc
.LFE11:
	.size	_ZN1CC2Ev, .-_ZN1CC2Ev
	.weak	_ZN1CC1Ev
	.set	_ZN1CC1Ev,_ZN1CC2Ev
	.text
	.globl	main
	.type	main, @function
main:
.LFB3:
	.loc 1 25 0
	.cfi_startproc
	pushl	%ebp
	.cfi_def_cfa_offset 8
	.cfi_offset 5, -8
	movl	%esp, %ebp
	.cfi_def_cfa_register 5
	andl	$-16, %esp
	subl	$48, %esp
.LBB5:
	.loc 1 26 0
	leal	36(%esp), %eax
	movl	%eax, (%esp)
	call	_ZN1AC1Ev
	.loc 1 27 0
	leal	20(%esp), %eax
	movl	%eax, (%esp)
	call	_ZN1CC1Ev
.LBE5:
	.loc 1 28 0
	movl	$0, %eax
	leave
	.cfi_restore 5
	.cfi_def_cfa 4, 4
	ret
	.cfi_endproc
.LFE3:
	.size	main, .-main
	.weak	_ZTV1C
	.section	.rodata._ZTV1C,"aG",@progbits,_ZTV1C,comdat
	.align 8
	.type	_ZTV1C, @object
	.size	_ZTV1C, 16
_ZTV1C:
	.long	0
	.long	_ZTI1C
	.long	_ZN1B3funEv
	.long	_ZN1A4fun1Ev
	.weak	_ZTV1B
	.section	.rodata._ZTV1B,"aG",@progbits,_ZTV1B,comdat
	.align 8
	.type	_ZTV1B, @object
	.size	_ZTV1B, 16
_ZTV1B:
	.long	0
	.long	_ZTI1B
	.long	_ZN1B3funEv
	.long	_ZN1A4fun1Ev
	.weak	_ZTV1A
	.section	.rodata._ZTV1A,"aG",@progbits,_ZTV1A,comdat
	.align 8
	.type	_ZTV1A, @object
	.size	_ZTV1A, 16
_ZTV1A:
	.long	0
	.long	_ZTI1A
	.long	_ZN1A3funEv
	.long	_ZN1A4fun1Ev
	.weak	_ZTS1C
	.section	.rodata._ZTS1C,"aG",@progbits,_ZTS1C,comdat
	.type	_ZTS1C, @object
	.size	_ZTS1C, 3
_ZTS1C:
	.string	"1C"
	.weak	_ZTI1C
	.section	.rodata._ZTI1C,"aG",@progbits,_ZTI1C,comdat
	.align 4
	.type	_ZTI1C, @object
	.size	_ZTI1C, 12
_ZTI1C:
	.long	_ZTVN10__cxxabiv120__si_class_type_infoE+8
	.long	_ZTS1C
	.long	_ZTI1B
	.weak	_ZTS1B
	.section	.rodata._ZTS1B,"aG",@progbits,_ZTS1B,comdat
	.type	_ZTS1B, @object
	.size	_ZTS1B, 3
_ZTS1B:
	.string	"1B"
	.weak	_ZTI1B
	.section	.rodata._ZTI1B,"aG",@progbits,_ZTI1B,comdat
	.align 4
	.type	_ZTI1B, @object
	.size	_ZTI1B, 12
_ZTI1B:
	.long	_ZTVN10__cxxabiv120__si_class_type_infoE+8
	.long	_ZTS1B
	.long	_ZTI1A
	.weak	_ZTS1A
	.section	.rodata._ZTS1A,"aG",@progbits,_ZTS1A,comdat
	.type	_ZTS1A, @object
	.size	_ZTS1A, 3
_ZTS1A:
	.string	"1A"
	.weak	_ZTI1A
	.section	.rodata._ZTI1A,"aG",@progbits,_ZTI1A,comdat
	.align 4
	.type	_ZTI1A, @object
	.size	_ZTI1A, 8
_ZTI1A:
	.long	_ZTVN10__cxxabiv117__class_type_infoE+8
	.long	_ZTS1A
	.text
.Letext0:
	.section	.note.GNU-stack,"",@progbits
