
p2:     file format elf32-i386

Contents of section .interp:
 8048154 2f6c6962 2f6c642d 6c696e75 782e736f  /lib/ld-linux.so
 8048164 2e3200                               .2.             
Contents of section .note.ABI-tag:
 8048168 04000000 10000000 01000000 474e5500  ............GNU.
 8048178 00000000 02000000 06000000 20000000  ............ ...
Contents of section .note.gnu.build-id:
 8048188 04000000 14000000 03000000 474e5500  ............GNU.
 8048198 88a040d7 d81eebe7 66ee06af ab00a524  ..@.....f......$
 80481a8 65ebbfba                             e...            
Contents of section .gnu.hash:
 80481ac 03000000 08000000 02000000 06000000  ................
 80481bc 88002001 00e44009 08000000 0a000000  .. ...@.........
 80481cc 0d000000 4245d5ec bbe3927c ac4be3c0  ....BE.....|.K..
 80481dc d871581c b98df10e ebd3ef0e           .qX.........    
Contents of section .dynsym:
 80481e8 00000000 00000000 00000000 00000000  ................
 80481f8 10000000 00000000 00000000 20000000  ............ ...
 8048208 95000000 00000000 00000000 12000000  ................
 8048218 75000000 00000000 00000000 12000000  u...............
 8048228 2c000000 00000000 00000000 20000000  ,........... ...
 8048238 9c000000 00000000 00000000 12000000  ................
 8048248 3b000000 00000000 00000000 20000000  ;........... ...
 8048258 4f000000 00000000 00000000 20000000  O........... ...
 8048268 ae000000 30a00408 00000000 10001800  ....0...........
 8048278 c1000000 3ca00408 00000000 10001900  ....<...........
 8048288 86000000 6c860408 04000000 11000f00  ....l...........
 8048298 b5000000 30a00408 00000000 10001900  ....0...........
 80482a8 69000000 fc830408 00000000 12000b00  i...............
 80482b8 6f000000 54860408 00000000 12000e00  o...T...........
Contents of section .dynstr:
 80482c8 002e2f6c 69627665 63746f72 2e736f00  ../libvector.so.
 80482d8 5f49544d 5f646572 65676973 74657254  _ITM_deregisterT
 80482e8 4d436c6f 6e655461 626c6500 5f5f676d  MCloneTable.__gm
 80482f8 6f6e5f73 74617274 5f5f005f 4a765f52  on_start__._Jv_R
 8048308 65676973 74657243 6c617373 6573005f  egisterClasses._
 8048318 49544d5f 72656769 73746572 544d436c  ITM_registerTMCl
 8048328 6f6e6554 61626c65 005f696e 6974005f  oneTable._init._
 8048338 66696e69 00616464 76656300 6c696263  fini.addvec.libc
 8048348 2e736f2e 36005f49 4f5f7374 64696e5f  .so.6._IO_stdin_
 8048358 75736564 00707269 6e746600 5f5f6c69  used.printf.__li
 8048368 62635f73 74617274 5f6d6169 6e005f65  bc_start_main._e
 8048378 64617461 005f5f62 73735f73 74617274  data.__bss_start
 8048388 005f656e 6400474c 4942435f 322e3000  ._end.GLIBC_2.0.
Contents of section .gnu.version:
 8048398 00000000 02000000 00000200 00000000  ................
 80483a8 01000100 01000100 01000100           ............    
Contents of section .gnu.version_r:
 80483b4 01000100 7c000000 10000000 00000000  ....|...........
 80483c4 1069690d 00000200 c6000000 00000000  .ii.............
Contents of section .rel.dyn:
 80483d4 fc9f0408 06040000                    ........        
Contents of section .rel.plt:
 80483dc 0ca00408 07020000 10a00408 07030000  ................
 80483ec 14a00408 07040000 18a00408 07050000  ................
Contents of section .init:
 80483fc 5383ec08 e89b0000 0081c3fb 1b00008b  S...............
 804840c 83fcffff ff85c074 05e83600 000083c4  .......t..6.....
 804841c 085bc3                               .[.             
Contents of section .plt:
 8048420 ff3504a0 0408ff25 08a00408 00000000  .5.....%........
 8048430 ff250ca0 04086800 000000e9 e0ffffff  .%....h.........
 8048440 ff2510a0 04086808 000000e9 d0ffffff  .%....h.........
 8048450 ff2514a0 04086810 000000e9 c0ffffff  .%....h.........
 8048460 ff2518a0 04086818 000000e9 b0ffffff  .%....h.........
Contents of section .text:
 8048470 31ed5e89 e183e4f0 50545268 50860408  1.^.....PTRhP...
 8048480 68e08504 08515668 80850408 e8cfffff  h....QVh........
 8048490 fff46690 66906690 66906690 66906690  ..f.f.f.f.f.f.f.
 80484a0 8b1c24c3 66906690 66906690 66906690  ..$.f.f.f.f.f.f.
 80484b0 b833a004 082d30a0 040883f8 067701c3  .3...-0......w..
 80484c0 b8000000 0085c074 f65589e5 8d6424e8  .......t.U...d$.
 80484d0 c7042430 a00408ff d0c9c390 8d742600  ..$0.........t&.
 80484e0 b830a004 082d30a0 0408c1f8 0289c2c1  .0...-0.........
 80484f0 ea1f01d0 d1f87501 c3ba0000 000085d2  ......u.........
 8048500 74f65589 e58d6424 e8894424 04c70424  t.U...d$..D$...$
 8048510 30a00408 ffd2c9c3 908db426 00000000  0..........&....
 8048520 803d30a0 04080075 185589e5 8d6424f8  .=0....u.U...d$.
 8048530 e87bffff ffc60530 a0040801 90909090  .{.....0........
 8048540 c9c38db4 26000000 008dbc27 00000000  ....&......'....
 8048550 a1089f04 0885c074 1fb80000 000085c0  .......t........
 8048560 74165589 e58d6424 e8c70424 089f0408  t.U...d$...$....
 8048570 ffd0c9e9 68ffffff e963ffff ff669090  ....h....c...f..
 8048580 5589e583 e4f083ec 10c74424 0c020000  U.........D$....
 8048590 00c74424 0834a004 08c74424 0428a004  ..D$.4....D$.(..
 80485a0 08c70424 20a00408 e893feff ff8b1538  ...$ ..........8
 80485b0 a00408a1 34a00408 89542408 89442404  ....4....T$..D$.
 80485c0 c7042474 860408e8 64feffff b8000000  ..$t....d.......
 80485d0 00c9c366 90669066 90669066 90669090  ...f.f.f.f.f.f..
 80485e0 555731ff 5653e8b5 feffff81 c3151a00  UW1.VS..........
 80485f0 0083ec1c 8b6c2430 8db304ff ffffe8f9  .....l$0........
 8048600 fdffff8d 8300ffff ff29c6c1 fe0285f6  .........)......
 8048610 74278db6 00000000 8b442438 892c2489  t'.......D$8.,$.
 8048620 4424088b 44243489 442404ff 94bb00ff  D$..D$4.D$......
 8048630 ffff83c7 0139f775 df83c41c 5b5e5f5d  .....9.u....[^_]
 8048640 c3eb0d90 90909090 90909090 90909090  ................
 8048650 f3c36690                             ..f.            
Contents of section .fini:
 8048654 5383ec08 e843feff ff81c3a3 19000083  S....C..........
 8048664 c4085bc3                             ..[.            
Contents of section .rodata:
 8048668 03000000 01000200 00000000 7a203d20  ............z = 
 8048678 5b256420 25645d0a 00                 [%d %d]..       
Contents of section .eh_frame_hdr:
 8048684 011b033b 28000000 04000000 9cfdffff  ...;(...........
 8048694 44000000 fcfeffff 68000000 5cffffff  D.......h...\...
 80486a4 88000000 ccffffff c4000000           ............    
Contents of section .eh_frame:
 80486b0 14000000 00000000 017a5200 017c0801  .........zR..|..
 80486c0 1b0c0404 88010000 20000000 1c000000  ........ .......
 80486d0 50fdffff 50000000 000e0846 0e0c4a0f  P...P......F..J.
 80486e0 0b740478 003f1a3b 2a322422 1c000000  .t.x.?.;*2$"....
 80486f0 40000000 8cfeffff 53000000 00410e08  @.......S....A..
 8048700 8502420d 05024fc5 0c040400 38000000  ..B...O.....8...
 8048710 60000000 ccfeffff 61000000 00410e08  `.......a....A..
 8048720 8502410e 0c870343 0e108604 410e1483  ..A....C....A...
 8048730 054e0e30 02480e14 41c30e10 41c60e0c  .N.0.H..A...A...
 8048740 41c70e08 41c50e04 10000000 9c000000  A...A...........
 8048750 00ffffff 02000000 00000000 00000000  ................
Contents of section .init_array:
 8049f00 50850408                             P...            
Contents of section .fini_array:
 8049f04 20850408                              ...            
Contents of section .jcr:
 8049f08 00000000                             ....            
Contents of section .dynamic:
 8049f0c 01000000 01000000 01000000 7c000000  ............|...
 8049f1c 0c000000 fc830408 0d000000 54860408  ............T...
 8049f2c 19000000 009f0408 1b000000 04000000  ................
 8049f3c 1a000000 049f0408 1c000000 04000000  ................
 8049f4c f5feff6f ac810408 05000000 c8820408  ...o............
 8049f5c 06000000 e8810408 0a000000 d0000000  ................
 8049f6c 0b000000 10000000 15000000 00000000  ................
 8049f7c 03000000 00a00408 02000000 20000000  ............ ...
 8049f8c 14000000 11000000 17000000 dc830408  ................
 8049f9c 11000000 d4830408 12000000 08000000  ................
 8049fac 13000000 08000000 feffff6f b4830408  ...........o....
 8049fbc ffffff6f 01000000 f0ffff6f 98830408  ...o.......o....
 8049fcc 00000000 00000000 00000000 00000000  ................
 8049fdc 00000000 00000000 00000000 00000000  ................
 8049fec 00000000 00000000 00000000 00000000  ................
Contents of section .got:
 8049ffc 00000000                             ....            
Contents of section .got.plt:
 804a000 0c9f0408 00000000 00000000 36840408  ............6...
 804a010 46840408 56840408 66840408           F...V...f...    
Contents of section .data:
 804a01c 00000000 01000000 02000000 03000000  ................
 804a02c 04000000                             ....            
Contents of section .comment:
 0000 4743433a 2028474e 55292034 2e372e32  GCC: (GNU) 4.7.2
 0010 20323031 32313130 39202852 65642048   20121109 (Red H
 0020 61742034 2e372e32 2d382900           at 4.7.2-8).    

Disassembly of section .init:

080483fc <_init>:
 80483fc:	53                   	push   %ebx
 80483fd:	83 ec 08             	sub    $0x8,%esp
 8048400:	e8 9b 00 00 00       	call   80484a0 <__x86.get_pc_thunk.bx>
 8048405:	81 c3 fb 1b 00 00    	add    $0x1bfb,%ebx
 804840b:	8b 83 fc ff ff ff    	mov    -0x4(%ebx),%eax
 8048411:	85 c0                	test   %eax,%eax
 8048413:	74 05                	je     804841a <_init+0x1e>
 8048415:	e8 36 00 00 00       	call   8048450 <__gmon_start__@plt>
 804841a:	83 c4 08             	add    $0x8,%esp
 804841d:	5b                   	pop    %ebx
 804841e:	c3                   	ret    

Disassembly of section .plt:

08048420 <printf@plt-0x10>:
 8048420:	ff 35 04 a0 04 08    	pushl  0x804a004
 8048426:	ff 25 08 a0 04 08    	jmp    *0x804a008
 804842c:	00 00                	add    %al,(%eax)
	...

08048430 <printf@plt>:
 8048430:	ff 25 0c a0 04 08    	jmp    *0x804a00c
 8048436:	68 00 00 00 00       	push   $0x0
 804843b:	e9 e0 ff ff ff       	jmp    8048420 <_init+0x24>

08048440 <addvec@plt>:
 8048440:	ff 25 10 a0 04 08    	jmp    *0x804a010
 8048446:	68 08 00 00 00       	push   $0x8
 804844b:	e9 d0 ff ff ff       	jmp    8048420 <_init+0x24>

08048450 <__gmon_start__@plt>:
 8048450:	ff 25 14 a0 04 08    	jmp    *0x804a014
 8048456:	68 10 00 00 00       	push   $0x10
 804845b:	e9 c0 ff ff ff       	jmp    8048420 <_init+0x24>

08048460 <__libc_start_main@plt>:
 8048460:	ff 25 18 a0 04 08    	jmp    *0x804a018
 8048466:	68 18 00 00 00       	push   $0x18
 804846b:	e9 b0 ff ff ff       	jmp    8048420 <_init+0x24>

Disassembly of section .text:

08048470 <_start>:
 8048470:	31 ed                	xor    %ebp,%ebp
 8048472:	5e                   	pop    %esi
 8048473:	89 e1                	mov    %esp,%ecx
 8048475:	83 e4 f0             	and    $0xfffffff0,%esp
 8048478:	50                   	push   %eax
 8048479:	54                   	push   %esp
 804847a:	52                   	push   %edx
 804847b:	68 50 86 04 08       	push   $0x8048650
 8048480:	68 e0 85 04 08       	push   $0x80485e0
 8048485:	51                   	push   %ecx
 8048486:	56                   	push   %esi
 8048487:	68 80 85 04 08       	push   $0x8048580
 804848c:	e8 cf ff ff ff       	call   8048460 <__libc_start_main@plt>
 8048491:	f4                   	hlt    
 8048492:	66 90                	xchg   %ax,%ax
 8048494:	66 90                	xchg   %ax,%ax
 8048496:	66 90                	xchg   %ax,%ax
 8048498:	66 90                	xchg   %ax,%ax
 804849a:	66 90                	xchg   %ax,%ax
 804849c:	66 90                	xchg   %ax,%ax
 804849e:	66 90                	xchg   %ax,%ax

080484a0 <__x86.get_pc_thunk.bx>:
 80484a0:	8b 1c 24             	mov    (%esp),%ebx
 80484a3:	c3                   	ret    
 80484a4:	66 90                	xchg   %ax,%ax
 80484a6:	66 90                	xchg   %ax,%ax
 80484a8:	66 90                	xchg   %ax,%ax
 80484aa:	66 90                	xchg   %ax,%ax
 80484ac:	66 90                	xchg   %ax,%ax
 80484ae:	66 90                	xchg   %ax,%ax

080484b0 <deregister_tm_clones>:
 80484b0:	b8 33 a0 04 08       	mov    $0x804a033,%eax
 80484b5:	2d 30 a0 04 08       	sub    $0x804a030,%eax
 80484ba:	83 f8 06             	cmp    $0x6,%eax
 80484bd:	77 01                	ja     80484c0 <deregister_tm_clones+0x10>
 80484bf:	c3                   	ret    
 80484c0:	b8 00 00 00 00       	mov    $0x0,%eax
 80484c5:	85 c0                	test   %eax,%eax
 80484c7:	74 f6                	je     80484bf <deregister_tm_clones+0xf>
 80484c9:	55                   	push   %ebp
 80484ca:	89 e5                	mov    %esp,%ebp
 80484cc:	8d 64 24 e8          	lea    -0x18(%esp),%esp
 80484d0:	c7 04 24 30 a0 04 08 	movl   $0x804a030,(%esp)
 80484d7:	ff d0                	call   *%eax
 80484d9:	c9                   	leave  
 80484da:	c3                   	ret    
 80484db:	90                   	nop
 80484dc:	8d 74 26 00          	lea    0x0(%esi,%eiz,1),%esi

080484e0 <register_tm_clones>:
 80484e0:	b8 30 a0 04 08       	mov    $0x804a030,%eax
 80484e5:	2d 30 a0 04 08       	sub    $0x804a030,%eax
 80484ea:	c1 f8 02             	sar    $0x2,%eax
 80484ed:	89 c2                	mov    %eax,%edx
 80484ef:	c1 ea 1f             	shr    $0x1f,%edx
 80484f2:	01 d0                	add    %edx,%eax
 80484f4:	d1 f8                	sar    %eax
 80484f6:	75 01                	jne    80484f9 <register_tm_clones+0x19>
 80484f8:	c3                   	ret    
 80484f9:	ba 00 00 00 00       	mov    $0x0,%edx
 80484fe:	85 d2                	test   %edx,%edx
 8048500:	74 f6                	je     80484f8 <register_tm_clones+0x18>
 8048502:	55                   	push   %ebp
 8048503:	89 e5                	mov    %esp,%ebp
 8048505:	8d 64 24 e8          	lea    -0x18(%esp),%esp
 8048509:	89 44 24 04          	mov    %eax,0x4(%esp)
 804850d:	c7 04 24 30 a0 04 08 	movl   $0x804a030,(%esp)
 8048514:	ff d2                	call   *%edx
 8048516:	c9                   	leave  
 8048517:	c3                   	ret    
 8048518:	90                   	nop
 8048519:	8d b4 26 00 00 00 00 	lea    0x0(%esi,%eiz,1),%esi

08048520 <__do_global_dtors_aux>:
 8048520:	80 3d 30 a0 04 08 00 	cmpb   $0x0,0x804a030
 8048527:	75 18                	jne    8048541 <__do_global_dtors_aux+0x21>
 8048529:	55                   	push   %ebp
 804852a:	89 e5                	mov    %esp,%ebp
 804852c:	8d 64 24 f8          	lea    -0x8(%esp),%esp
 8048530:	e8 7b ff ff ff       	call   80484b0 <deregister_tm_clones>
 8048535:	c6 05 30 a0 04 08 01 	movb   $0x1,0x804a030
 804853c:	90                   	nop
 804853d:	90                   	nop
 804853e:	90                   	nop
 804853f:	90                   	nop
 8048540:	c9                   	leave  
 8048541:	c3                   	ret    
 8048542:	8d b4 26 00 00 00 00 	lea    0x0(%esi,%eiz,1),%esi
 8048549:	8d bc 27 00 00 00 00 	lea    0x0(%edi,%eiz,1),%edi

08048550 <frame_dummy>:
 8048550:	a1 08 9f 04 08       	mov    0x8049f08,%eax
 8048555:	85 c0                	test   %eax,%eax
 8048557:	74 1f                	je     8048578 <frame_dummy+0x28>
 8048559:	b8 00 00 00 00       	mov    $0x0,%eax
 804855e:	85 c0                	test   %eax,%eax
 8048560:	74 16                	je     8048578 <frame_dummy+0x28>
 8048562:	55                   	push   %ebp
 8048563:	89 e5                	mov    %esp,%ebp
 8048565:	8d 64 24 e8          	lea    -0x18(%esp),%esp
 8048569:	c7 04 24 08 9f 04 08 	movl   $0x8049f08,(%esp)
 8048570:	ff d0                	call   *%eax
 8048572:	c9                   	leave  
 8048573:	e9 68 ff ff ff       	jmp    80484e0 <register_tm_clones>
 8048578:	e9 63 ff ff ff       	jmp    80484e0 <register_tm_clones>
 804857d:	66 90                	xchg   %ax,%ax
 804857f:	90                   	nop

08048580 <main>:
 8048580:	55                   	push   %ebp
 8048581:	89 e5                	mov    %esp,%ebp
 8048583:	83 e4 f0             	and    $0xfffffff0,%esp
 8048586:	83 ec 10             	sub    $0x10,%esp
 8048589:	c7 44 24 0c 02 00 00 	movl   $0x2,0xc(%esp)
 8048590:	00 
 8048591:	c7 44 24 08 34 a0 04 	movl   $0x804a034,0x8(%esp)
 8048598:	08 
 8048599:	c7 44 24 04 28 a0 04 	movl   $0x804a028,0x4(%esp)
 80485a0:	08 
 80485a1:	c7 04 24 20 a0 04 08 	movl   $0x804a020,(%esp)
 80485a8:	e8 93 fe ff ff       	call   8048440 <addvec@plt>
 80485ad:	8b 15 38 a0 04 08    	mov    0x804a038,%edx
 80485b3:	a1 34 a0 04 08       	mov    0x804a034,%eax
 80485b8:	89 54 24 08          	mov    %edx,0x8(%esp)
 80485bc:	89 44 24 04          	mov    %eax,0x4(%esp)
 80485c0:	c7 04 24 74 86 04 08 	movl   $0x8048674,(%esp)
 80485c7:	e8 64 fe ff ff       	call   8048430 <printf@plt>
 80485cc:	b8 00 00 00 00       	mov    $0x0,%eax
 80485d1:	c9                   	leave  
 80485d2:	c3                   	ret    
 80485d3:	66 90                	xchg   %ax,%ax
 80485d5:	66 90                	xchg   %ax,%ax
 80485d7:	66 90                	xchg   %ax,%ax
 80485d9:	66 90                	xchg   %ax,%ax
 80485db:	66 90                	xchg   %ax,%ax
 80485dd:	66 90                	xchg   %ax,%ax
 80485df:	90                   	nop

080485e0 <__libc_csu_init>:
 80485e0:	55                   	push   %ebp
 80485e1:	57                   	push   %edi
 80485e2:	31 ff                	xor    %edi,%edi
 80485e4:	56                   	push   %esi
 80485e5:	53                   	push   %ebx
 80485e6:	e8 b5 fe ff ff       	call   80484a0 <__x86.get_pc_thunk.bx>
 80485eb:	81 c3 15 1a 00 00    	add    $0x1a15,%ebx
 80485f1:	83 ec 1c             	sub    $0x1c,%esp
 80485f4:	8b 6c 24 30          	mov    0x30(%esp),%ebp
 80485f8:	8d b3 04 ff ff ff    	lea    -0xfc(%ebx),%esi
 80485fe:	e8 f9 fd ff ff       	call   80483fc <_init>
 8048603:	8d 83 00 ff ff ff    	lea    -0x100(%ebx),%eax
 8048609:	29 c6                	sub    %eax,%esi
 804860b:	c1 fe 02             	sar    $0x2,%esi
 804860e:	85 f6                	test   %esi,%esi
 8048610:	74 27                	je     8048639 <__libc_csu_init+0x59>
 8048612:	8d b6 00 00 00 00    	lea    0x0(%esi),%esi
 8048618:	8b 44 24 38          	mov    0x38(%esp),%eax
 804861c:	89 2c 24             	mov    %ebp,(%esp)
 804861f:	89 44 24 08          	mov    %eax,0x8(%esp)
 8048623:	8b 44 24 34          	mov    0x34(%esp),%eax
 8048627:	89 44 24 04          	mov    %eax,0x4(%esp)
 804862b:	ff 94 bb 00 ff ff ff 	call   *-0x100(%ebx,%edi,4)
 8048632:	83 c7 01             	add    $0x1,%edi
 8048635:	39 f7                	cmp    %esi,%edi
 8048637:	75 df                	jne    8048618 <__libc_csu_init+0x38>
 8048639:	83 c4 1c             	add    $0x1c,%esp
 804863c:	5b                   	pop    %ebx
 804863d:	5e                   	pop    %esi
 804863e:	5f                   	pop    %edi
 804863f:	5d                   	pop    %ebp
 8048640:	c3                   	ret    
 8048641:	eb 0d                	jmp    8048650 <__libc_csu_fini>
 8048643:	90                   	nop
 8048644:	90                   	nop
 8048645:	90                   	nop
 8048646:	90                   	nop
 8048647:	90                   	nop
 8048648:	90                   	nop
 8048649:	90                   	nop
 804864a:	90                   	nop
 804864b:	90                   	nop
 804864c:	90                   	nop
 804864d:	90                   	nop
 804864e:	90                   	nop
 804864f:	90                   	nop

08048650 <__libc_csu_fini>:
 8048650:	f3 c3                	repz ret 
 8048652:	66 90                	xchg   %ax,%ax

Disassembly of section .fini:

08048654 <_fini>:
 8048654:	53                   	push   %ebx
 8048655:	83 ec 08             	sub    $0x8,%esp
 8048658:	e8 43 fe ff ff       	call   80484a0 <__x86.get_pc_thunk.bx>
 804865d:	81 c3 a3 19 00 00    	add    $0x19a3,%ebx
 8048663:	83 c4 08             	add    $0x8,%esp
 8048666:	5b                   	pop    %ebx
 8048667:	c3                   	ret    
